; Function Attrs: mustprogress nounwind uwtable
define void @_ZN7Imf_3_46HeaderD2Ev(ptr noundef nonnull align 8 dereferenceable(49) %0) unnamed_addr #4 align 2 personality ptr @__gxx_personality_v0 {
  %2 = getelementptr inbounds nuw i8, ptr %0, i64 24
  %3 = load ptr, ptr %2, align 8, !tbaa !3
  %4 = getelementptr inbounds nuw i8, ptr %0, i64 8
  %.not4 = icmp eq ptr %3, %4
  br i1 %.not4, label %._crit_edge, label %.lr.ph

._crit_edge:                                      ; preds = %12, %1
  invoke fastcc void @_ZN7Imf_3_412_GLOBAL__N_122clearCompressionRecordEPNS_6HeaderE(ptr noundef %0)
          to label %14 unwind label %20

.lr.ph:                                           ; preds = %1, %12
  %.sroa.01.05 = phi ptr [ %13, %12 ], [ %3, %1 ]
  %5 = getelementptr inbounds nuw i8, ptr %.sroa.01.05, i64 288
  %6 = load ptr, ptr %5, align 8, !tbaa !38
  %7 = icmp eq ptr %6, null
  br i1 %7, label %12, label %8

8:                                                ; preds = %.lr.ph
  %9 = load ptr, ptr %6, align 8, !tbaa !32
  %10 = getelementptr inbounds nuw i8, ptr %9, i64 8
  %11 = load ptr, ptr %10, align 8
  tail call void %11(ptr noundef nonnull align 8 dereferenceable(8) %6) #29
  br label %12

12:                                               ; preds = %.lr.ph, %8
  %13 = tail call noundef ptr @_ZSt18_Rb_tree_incrementPSt18_Rb_tree_node_base(ptr noundef nonnull %.sroa.01.05) #32
  %.not = icmp eq ptr %13, %4
  br i1 %.not, label %._crit_edge, label %.lr.ph, !llvm.loop !57

14:                                               ; preds = %._crit_edge
  %15 = getelementptr inbounds nuw i8, ptr %0, i64 16
  %16 = load ptr, ptr %15, align 8, !tbaa !35
  invoke void @_ZNSt8_Rb_treeIN7Imf_3_44NameESt4pairIKS1_PNS0_9AttributeEESt10_Select1stIS6_ESt4lessIS1_ESaIS6_EE8_M_eraseEPSt13_Rb_tree_nodeIS6_E(ptr noundef nonnull align 8 dereferenceable(48) %0, ptr noundef %16)
          to label %_ZNSt3mapIN7Imf_3_44NameEPNS0_9AttributeESt4lessIS1_ESaISt4pairIKS1_S3_EEED2Ev.exit unwind label %17

17:                                               ; preds = %14
  %18 = landingpad { ptr, i32 }
          catch ptr null
  %19 = extractvalue { ptr, i32 } %18, 0
  tail call void @__clang_call_terminate(ptr %19) #31
  unreachable

_ZNSt3mapIN7Imf_3_44NameEPNS0_9AttributeESt4lessIS1_ESaISt4pairIKS1_S3_EEED2Ev.exit: ; preds = %14
  ret void

20:                                               ; preds = %._crit_edge
  %21 = landingpad { ptr, i32 }
          catch ptr null
  %22 = extractvalue { ptr, i32 } %21, 0
  tail call void @__clang_call_terminate(ptr %22) #31
  unreachable
}